; ModuleID = '39/984.c'
source_filename = "39/984.c"
target datalayout = "e-m:e-p270:32:32-p271:32:32-p272:64:64-i64:64-f80:128-n8:16:32:64-S128"
target triple = "x86_64-pc-linux-gnu"

@.str = private unnamed_addr constant [3 x i8] c"%d\00", align 1
@.str.1 = private unnamed_addr constant [3 x i8] c"%c\00", align 1
@.str.2 = private unnamed_addr constant [6 x i8] c" %d%d\00", align 1
@.str.3 = private unnamed_addr constant [8 x i8] c" %c %c \00", align 1
@.str.4 = private unnamed_addr constant [4 x i8] c"%d\0A\00", align 1
@.str.5 = private unnamed_addr constant [2 x i8] c"\0A\00", align 1
@.str.6 = private unnamed_addr constant [6 x i8] c"%d\0A%d\00", align 1

; Function Attrs: noinline nounwind uwtable
define dso_local i32 @main() #0 {
  %1 = alloca i32, align 4
  %2 = alloca [101 x i32], align 16
  %3 = alloca [101 x i32], align 16
  %4 = alloca [101 x i32], align 16
  %5 = alloca i32, align 4
  %6 = alloca i32, align 4
  %7 = alloca i32, align 4
  %8 = alloca [101 x i32], align 16
  %9 = alloca i32, align 4
  %10 = alloca i32, align 4
  %11 = alloca i32, align 4
  %12 = alloca [101 x [20 x i8]], align 16
  %13 = alloca [101 x i8], align 16
  %14 = alloca [101 x i8], align 16
  store i32 0, i32* %1, align 4
  store i32 0, i32* %9, align 4
  store i32 0, i32* %10, align 4
  %15 = call i32 (i8*, ...) @__isoc99_scanf(i8* getelementptr inbounds ([3 x i8], [3 x i8]* @.str, i64 0, i64 0), i32* %7)
  store i32 0, i32* %5, align 4
  br label %16

16:                                               ; preds = %166, %0
  %17 = load i32, i32* %5, align 4
  %18 = load i32, i32* %7, align 4
  %19 = icmp slt i32 %17, %18
  br i1 %19, label %20, label %169

20:                                               ; preds = %16
  store i32 0, i32* %11, align 4
  br label %21

21:                                               ; preds = %40, %20
  %22 = load i32, i32* %5, align 4
  %23 = sext i32 %22 to i64
  %24 = getelementptr inbounds [101 x [20 x i8]], [101 x [20 x i8]]* %12, i64 0, i64 %23
  %25 = load i32, i32* %11, align 4
  %26 = sext i32 %25 to i64
  %27 = getelementptr inbounds [20 x i8], [20 x i8]* %24, i64 0, i64 %26
  %28 = call i32 (i8*, ...) @__isoc99_scanf(i8* getelementptr inbounds ([3 x i8], [3 x i8]* @.str.1, i64 0, i64 0), i8* %27)
  %29 = load i32, i32* %5, align 4
  %30 = sext i32 %29 to i64
  %31 = getelementptr inbounds [101 x [20 x i8]], [101 x [20 x i8]]* %12, i64 0, i64 %30
  %32 = load i32, i32* %11, align 4
  %33 = sext i32 %32 to i64
  %34 = getelementptr inbounds [20 x i8], [20 x i8]* %31, i64 0, i64 %33
  %35 = load i8, i8* %34, align 1
  %36 = sext i8 %35 to i32
  %37 = icmp eq i32 %36, 32
  br i1 %37, label %38, label %39

38:                                               ; preds = %21
  br label %43

39:                                               ; preds = %21
  br label %40

40:                                               ; preds = %39
  %41 = load i32, i32* %11, align 4
  %42 = add nsw i32 %41, 1
  store i32 %42, i32* %11, align 4
  br label %21

43:                                               ; preds = %38
  %44 = load i32, i32* %5, align 4
  %45 = sext i32 %44 to i64
  %46 = getelementptr inbounds [101 x i32], [101 x i32]* %2, i64 0, i64 %45
  %47 = load i32, i32* %5, align 4
  %48 = sext i32 %47 to i64
  %49 = getelementptr inbounds [101 x i32], [101 x i32]* %3, i64 0, i64 %48
  %50 = call i32 (i8*, ...) @__isoc99_scanf(i8* getelementptr inbounds ([6 x i8], [6 x i8]* @.str.2, i64 0, i64 0), i32* %46, i32* %49)
  %51 = load i32, i32* %5, align 4
  %52 = sext i32 %51 to i64
  %53 = getelementptr inbounds [101 x i8], [101 x i8]* %14, i64 0, i64 %52
  %54 = load i32, i32* %5, align 4
  %55 = sext i32 %54 to i64
  %56 = getelementptr inbounds [101 x i8], [101 x i8]* %13, i64 0, i64 %55
  %57 = call i32 (i8*, ...) @__isoc99_scanf(i8* getelementptr inbounds ([8 x i8], [8 x i8]* @.str.3, i64 0, i64 0), i8* %53, i8* %56)
  %58 = load i32, i32* %5, align 4
  %59 = sext i32 %58 to i64
  %60 = getelementptr inbounds [101 x i32], [101 x i32]* %4, i64 0, i64 %59
  %61 = call i32 (i8*, ...) @__isoc99_scanf(i8* getelementptr inbounds ([4 x i8], [4 x i8]* @.str.4, i64 0, i64 0), i32* %60)
  %62 = load i32, i32* %5, align 4
  %63 = sext i32 %62 to i64
  %64 = getelementptr inbounds [101 x i32], [101 x i32]* %8, i64 0, i64 %63
  store i32 0, i32* %64, align 4
  %65 = load i32, i32* %5, align 4
  %66 = sext i32 %65 to i64
  %67 = getelementptr inbounds [101 x i32], [101 x i32]* %2, i64 0, i64 %66
  %68 = load i32, i32* %67, align 4
  %69 = icmp sgt i32 %68, 80
  br i1 %69, label %70, label %85

70:                                               ; preds = %43
  %71 = load i32, i32* %5, align 4
  %72 = sext i32 %71 to i64
  %73 = getelementptr inbounds [101 x i32], [101 x i32]* %4, i64 0, i64 %72
  %74 = load i32, i32* %73, align 4
  %75 = icmp sge i32 %74, 1
  br i1 %75, label %76, label %85

76:                                               ; preds = %70
  %77 = load i32, i32* %5, align 4
  %78 = sext i32 %77 to i64
  %79 = getelementptr inbounds [101 x i32], [101 x i32]* %8, i64 0, i64 %78
  %80 = load i32, i32* %79, align 4
  %81 = add nsw i32 %80, 8000
  %82 = load i32, i32* %5, align 4
  %83 = sext i32 %82 to i64
  %84 = getelementptr inbounds [101 x i32], [101 x i32]* %8, i64 0, i64 %83
  store i32 %81, i32* %84, align 4
  br label %85

85:                                               ; preds = %76, %70, %43
  %86 = load i32, i32* %5, align 4
  %87 = sext i32 %86 to i64
  %88 = getelementptr inbounds [101 x i32], [101 x i32]* %2, i64 0, i64 %87
  %89 = load i32, i32* %88, align 4
  %90 = icmp sgt i32 %89, 85
  br i1 %90, label %91, label %106

91:                                               ; preds = %85
  %92 = load i32, i32* %5, align 4
  %93 = sext i32 %92 to i64
  %94 = getelementptr inbounds [101 x i32], [101 x i32]* %3, i64 0, i64 %93
  %95 = load i32, i32* %94, align 4
  %96 = icmp sgt i32 %95, 80
  br i1 %96, label %97, label %106

97:                                               ; preds = %91
  %98 = load i32, i32* %5, align 4
  %99 = sext i32 %98 to i64
  %100 = getelementptr inbounds [101 x i32], [101 x i32]* %8, i64 0, i64 %99
  %101 = load i32, i32* %100, align 4
  %102 = add nsw i32 %101, 4000
  %103 = load i32, i32* %5, align 4
  %104 = sext i32 %103 to i64
  %105 = getelementptr inbounds [101 x i32], [101 x i32]* %8, i64 0, i64 %104
  store i32 %102, i32* %105, align 4
  br label %106

106:                                              ; preds = %97, %91, %85
  %107 = load i32, i32* %5, align 4
  %108 = sext i32 %107 to i64
  %109 = getelementptr inbounds [101 x i32], [101 x i32]* %2, i64 0, i64 %108
  %110 = load i32, i32* %109, align 4
  %111 = icmp sgt i32 %110, 90
  br i1 %111, label %112, label %121

112:                                              ; preds = %106
  %113 = load i32, i32* %5, align 4
  %114 = sext i32 %113 to i64
  %115 = getelementptr inbounds [101 x i32], [101 x i32]* %8, i64 0, i64 %114
  %116 = load i32, i32* %115, align 4
  %117 = add nsw i32 %116, 2000
  %118 = load i32, i32* %5, align 4
  %119 = sext i32 %118 to i64
  %120 = getelementptr inbounds [101 x i32], [101 x i32]* %8, i64 0, i64 %119
  store i32 %117, i32* %120, align 4
  br label %121

121:                                              ; preds = %112, %106
  %122 = load i32, i32* %5, align 4
  %123 = sext i32 %122 to i64
  %124 = getelementptr inbounds [101 x i32], [101 x i32]* %2, i64 0, i64 %123
  %125 = load i32, i32* %124, align 4
  %126 = icmp sgt i32 %125, 85
  br i1 %126, label %127, label %143

127:                                              ; preds = %121
  %128 = load i32, i32* %5, align 4
  %129 = sext i32 %128 to i64
  %130 = getelementptr inbounds [101 x i8], [101 x i8]* %13, i64 0, i64 %129
  %131 = load i8, i8* %130, align 1
  %132 = sext i8 %131 to i32
  %133 = icmp eq i32 %132, 89
  br i1 %133, label %134, label %143

134:                                              ; preds = %127
  %135 = load i32, i32* %5, align 4
  %136 = sext i32 %135 to i64
  %137 = getelementptr inbounds [101 x i32], [101 x i32]* %8, i64 0, i64 %136
  %138 = load i32, i32* %137, align 4
  %139 = add nsw i32 %138, 1000
  %140 = load i32, i32* %5, align 4
  %141 = sext i32 %140 to i64
  %142 = getelementptr inbounds [101 x i32], [101 x i32]* %8, i64 0, i64 %141
  store i32 %139, i32* %142, align 4
  br label %143

143:                                              ; preds = %134, %127, %121
  %144 = load i32, i32* %5, align 4
  %145 = sext i32 %144 to i64
  %146 = getelementptr inbounds [101 x i32], [101 x i32]* %3, i64 0, i64 %145
  %147 = load i32, i32* %146, align 4
  %148 = icmp sgt i32 %147, 80
  br i1 %148, label %149, label %165

149:                                              ; preds = %143
  %150 = load i32, i32* %5, align 4
  %151 = sext i32 %150 to i64
  %152 = getelementptr inbounds [101 x i8], [101 x i8]* %14, i64 0, i64 %151
  %153 = load i8, i8* %152, align 1
  %154 = sext i8 %153 to i32
  %155 = icmp eq i32 %154, 89
  br i1 %155, label %156, label %165

156:                                              ; preds = %149
  %157 = load i32, i32* %5, align 4
  %158 = sext i32 %157 to i64
  %159 = getelementptr inbounds [101 x i32], [101 x i32]* %8, i64 0, i64 %158
  %160 = load i32, i32* %159, align 4
  %161 = add nsw i32 %160, 850
  %162 = load i32, i32* %5, align 4
  %163 = sext i32 %162 to i64
  %164 = getelementptr inbounds [101 x i32], [101 x i32]* %8, i64 0, i64 %163
  store i32 %161, i32* %164, align 4
  br label %165

165:                                              ; preds = %156, %149, %143
  br label %166

166:                                              ; preds = %165
  %167 = load i32, i32* %5, align 4
  %168 = add nsw i32 %167, 1
  store i32 %168, i32* %5, align 4
  br label %16

169:                                              ; preds = %16
  store i32 0, i32* %5, align 4
  br label %170

170:                                              ; preds = %194, %169
  %171 = load i32, i32* %5, align 4
  %172 = load i32, i32* %7, align 4
  %173 = icmp slt i32 %171, %172
  br i1 %173, label %174, label %197

174:                                              ; preds = %170
  %175 = load i32, i32* %5, align 4
  %176 = sext i32 %175 to i64
  %177 = getelementptr inbounds [101 x i32], [101 x i32]* %8, i64 0, i64 %176
  %178 = load i32, i32* %177, align 4
  %179 = load i32, i32* %9, align 4
  %180 = icmp sgt i32 %178, %179
  br i1 %180, label %181, label %187

181:                                              ; preds = %174
  %182 = load i32, i32* %5, align 4
  %183 = sext i32 %182 to i64
  %184 = getelementptr inbounds [101 x i32], [101 x i32]* %8, i64 0, i64 %183
  %185 = load i32, i32* %184, align 4
  store i32 %185, i32* %9, align 4
  %186 = load i32, i32* %5, align 4
  store i32 %186, i32* %6, align 4
  br label %187

187:                                              ; preds = %181, %174
  %188 = load i32, i32* %10, align 4
  %189 = load i32, i32* %5, align 4
  %190 = sext i32 %189 to i64
  %191 = getelementptr inbounds [101 x i32], [101 x i32]* %8, i64 0, i64 %190
  %192 = load i32, i32* %191, align 4
  %193 = add nsw i32 %188, %192
  store i32 %193, i32* %10, align 4
  br label %194

194:                                              ; preds = %187
  %195 = load i32, i32* %5, align 4
  %196 = add nsw i32 %195, 1
  store i32 %196, i32* %5, align 4
  br label %170

197:                                              ; preds = %170
  store i32 0, i32* %11, align 4
  br label %198

198:                                              ; preds = %221, %197
  %199 = load i32, i32* %6, align 4
  %200 = sext i32 %199 to i64
  %201 = getelementptr inbounds [101 x [20 x i8]], [101 x [20 x i8]]* %12, i64 0, i64 %200
  %202 = load i32, i32* %11, align 4
  %203 = sext i32 %202 to i64
  %204 = getelementptr inbounds [20 x i8], [20 x i8]* %201, i64 0, i64 %203
  %205 = load i8, i8* %204, align 1
  %206 = sext i8 %205 to i32
  %207 = icmp ne i32 %206, 32
  br i1 %207, label %208, label %218

208:                                              ; preds = %198
  %209 = load i32, i32* %6, align 4
  %210 = sext i32 %209 to i64
  %211 = getelementptr inbounds [101 x [20 x i8]], [101 x [20 x i8]]* %12, i64 0, i64 %210
  %212 = load i32, i32* %11, align 4
  %213 = sext i32 %212 to i64
  %214 = getelementptr inbounds [20 x i8], [20 x i8]* %211, i64 0, i64 %213
  %215 = load i8, i8* %214, align 1
  %216 = sext i8 %215 to i32
  %217 = call i32 (i8*, ...) @printf(i8* getelementptr inbounds ([3 x i8], [3 x i8]* @.str.1, i64 0, i64 0), i32 %216)
  br label %220

218:                                              ; preds = %198
  %219 = call i32 (i8*, ...) @printf(i8* getelementptr inbounds ([2 x i8], [2 x i8]* @.str.5, i64 0, i64 0))
  br label %224

220:                                              ; preds = %208
  br label %221

221:                                              ; preds = %220
  %222 = load i32, i32* %11, align 4
  %223 = add nsw i32 %222, 1
  store i32 %223, i32* %11, align 4
  br label %198

224:                                              ; preds = %218
  %225 = load i32, i32* %6, align 4
  %226 = sext i32 %225 to i64
  %227 = getelementptr inbounds [101 x i32], [101 x i32]* %8, i64 0, i64 %226
  %228 = load i32, i32* %227, align 4
  %229 = load i32, i32* %10, align 4
  %230 = call i32 (i8*, ...) @printf(i8* getelementptr inbounds ([6 x i8], [6 x i8]* @.str.6, i64 0, i64 0), i32 %228, i32 %229)
  ret i32 0
}

declare dso_local i32 @__isoc99_scanf(i8*, ...) #1

declare dso_local i32 @printf(i8*, ...) #1


!llvm.module.flags = !{!0}
!llvm.ident = !{!1}

!0 = !{i32 1, !"wchar_size", i32 4}
!1 = !{!"clang version 10.0.0-4ubuntu1 "}
